target datalayout = "e-m:e-p270:32:32-p271:32:32-p272:64:64-i64:64-i128:128-f80:128-n8:16:32:64-S128"
target triple = "x86_64-pc-linux-gnu"

@.str = private unnamed_addr constant [34 x i8] c"../openssl/crypto/cms/cms_smime.c\00", align 1
@__func__.CMS_digest_verify = private unnamed_addr constant [18 x i8] c"CMS_digest_verify\00", align 1
@__func__.check_content = private unnamed_addr constant [14 x i8] c"check_content\00", align 1

; Function Attrs: nounwind uwtable
define internal void @do_free_upto(ptr noundef %0, ptr noundef %1) #0 {
  %3 = alloca ptr, align 8
  %4 = alloca ptr, align 8
  %5 = alloca ptr, align 8
  store ptr %0, ptr %3, align 8, !tbaa !8
  store ptr %1, ptr %4, align 8, !tbaa !8
  %6 = load ptr, ptr %4, align 8, !tbaa !8
  %7 = icmp ne ptr %6, null
  br i1 %7, label %8, label %25

8:                                                ; preds = %2
  call void @llvm.lifetime.start.p0(i64 8, ptr %5) #4
  br label %9

9:                                                ; preds = %22, %8
  %10 = load ptr, ptr %3, align 8, !tbaa !8
  %11 = call ptr @BIO_pop(ptr noundef %10)
  store ptr %11, ptr %5, align 8, !tbaa !8
  %12 = load ptr, ptr %3, align 8, !tbaa !8
  %13 = call i32 @BIO_free(ptr noundef %12)
  %14 = load ptr, ptr %5, align 8, !tbaa !8
  store ptr %14, ptr %3, align 8, !tbaa !8
  br label %15

15:                                               ; preds = %9
  %16 = load ptr, ptr %3, align 8, !tbaa !8
  %17 = icmp ne ptr %16, null
  br i1 %17, label %18, label %22

18:                                               ; preds = %15
  %19 = load ptr, ptr %3, align 8, !tbaa !8
  %20 = load ptr, ptr %4, align 8, !tbaa !8
  %21 = icmp ne ptr %19, %20
  br label %22

22:                                               ; preds = %18, %15
  %23 = phi i1 [ false, %15 ], [ %21, %18 ]
  br i1 %23, label %9, label %24, !llvm.loop !20

24:                                               ; preds = %22
  call void @llvm.lifetime.end.p0(i64 8, ptr %5) #4
  br label %27

25:                                               ; preds = %2
  %26 = load ptr, ptr %3, align 8, !tbaa !8
  call void @BIO_free_all(ptr noundef %26)
  br label %27

27:                                               ; preds = %25, %24
  ret void
}

; Function Attrs: nounwind uwtable
define internal i32 @check_content(ptr noundef %0) #0 {
  %2 = alloca i32, align 4
  %3 = alloca ptr, align 8
  %4 = alloca ptr, align 8
  %5 = alloca i32, align 4
  store ptr %0, ptr %3, align 8, !tbaa !3
  call void @llvm.lifetime.start.p0(i64 8, ptr %4) #4
  %6 = load ptr, ptr %3, align 8, !tbaa !3
  %7 = call ptr @CMS_get0_content(ptr noundef %6)
  store ptr %7, ptr %4, align 8, !tbaa !16
  %8 = load ptr, ptr %4, align 8, !tbaa !16
  %9 = icmp eq ptr %8, null
  br i1 %9, label %14, label %10

10:                                               ; preds = %1
  %11 = load ptr, ptr %4, align 8, !tbaa !16
  %12 = load ptr, ptr %11, align 8, !tbaa !18
  %13 = icmp eq ptr %12, null
  br i1 %13, label %14, label %15

14:                                               ; preds = %10, %1
  call void @ERR_new()
  call void @ERR_set_debug(ptr noundef @.str, i32 noundef 84, ptr noundef @__func__.check_content)
  call void (i32, i32, ptr, ...) @ERR_set_error(i32 noundef 46, i32 noundef 127, ptr noundef null)
  store i32 0, ptr %2, align 4
  store i32 1, ptr %5, align 4
  br label %16

15:                                               ; preds = %10
  store i32 1, ptr %2, align 4
  store i32 1, ptr %5, align 4
  br label %16

16:                                               ; preds = %15, %14
  call void @llvm.lifetime.end.p0(i64 8, ptr %4) #4
  %17 = load i32, ptr %2, align 4
  ret i32 %17
}

; Function Attrs: nounwind uwtable
define i32 @CMS_digest_verify(ptr noundef %0, ptr noundef %1, ptr noundef %2, i32 noundef %3) #0 {
  %5 = alloca i32, align 4
  %6 = alloca ptr, align 8
  %7 = alloca ptr, align 8
  %8 = alloca ptr, align 8
  %9 = alloca i32, align 4
  %10 = alloca ptr, align 8
  %11 = alloca i32, align 4
  %12 = alloca i32, align 4
  store ptr %0, ptr %6, align 8, !tbaa !3
  store ptr %1, ptr %7, align 8, !tbaa !8
  store ptr %2, ptr %8, align 8, !tbaa !8
  store i32 %3, ptr %9, align 4, !tbaa !10
  call void @llvm.lifetime.start.p0(i64 8, ptr %10) #4
  call void @llvm.lifetime.start.p0(i64 4, ptr %11) #4
  %13 = load ptr, ptr %6, align 8, !tbaa !3
  %14 = call ptr @CMS_get0_type(ptr noundef %13)
  %15 = call i32 @OBJ_obj2nid(ptr noundef %14)
  %16 = icmp ne i32 %15, 25
  br i1 %16, label %17, label %18

17:                                               ; preds = %4
  call void @ERR_new()
  call void @ERR_set_debug(ptr noundef @.str, i32 noundef 149, ptr noundef @__func__.CMS_digest_verify)
  call void (i32, i32, ptr, ...) @ERR_set_error(i32 noundef 46, i32 noundef 144, ptr noundef null)
  store i32 0, ptr %5, align 4
  store i32 1, ptr %12, align 4
  br label %48

18:                                               ; preds = %4
  %19 = load ptr, ptr %7, align 8, !tbaa !8
  %20 = icmp eq ptr %19, null
  br i1 %20, label %21, label %26

21:                                               ; preds = %18
  %22 = load ptr, ptr %6, align 8, !tbaa !3
  %23 = call i32 @check_content(ptr noundef %22)
  %24 = icmp ne i32 %23, 0
  br i1 %24, label %26, label %25

25:                                               ; preds = %21
  store i32 0, ptr %5, align 4
  store i32 1, ptr %12, align 4
  br label %48

26:                                               ; preds = %21, %18
  %27 = load ptr, ptr %6, align 8, !tbaa !3
  %28 = load ptr, ptr %7, align 8, !tbaa !8
  %29 = call ptr @CMS_dataInit(ptr noundef %27, ptr noundef %28)
  store ptr %29, ptr %10, align 8, !tbaa !8
  %30 = load ptr, ptr %10, align 8, !tbaa !8
  %31 = icmp eq ptr %30, null
  br i1 %31, label %32, label %33

32:                                               ; preds = %26
  store i32 0, ptr %5, align 4
  store i32 1, ptr %12, align 4
  br label %48

33:                                               ; preds = %26
  %34 = load ptr, ptr %8, align 8, !tbaa !8
  %35 = load ptr, ptr %10, align 8, !tbaa !8
  %36 = load i32, ptr %9, align 4, !tbaa !10
  %37 = call i32 @cms_copy_content(ptr noundef %34, ptr noundef %35, i32 noundef %36)
  store i32 %37, ptr %11, align 4, !tbaa !10
  %38 = load i32, ptr %11, align 4, !tbaa !10
  %39 = icmp ne i32 %38, 0
  br i1 %39, label %40, label %44

40:                                               ; preds = %33
  %41 = load ptr, ptr %6, align 8, !tbaa !3
  %42 = load ptr, ptr %10, align 8, !tbaa !8
  %43 = call i32 @ossl_cms_DigestedData_do_final(ptr noundef %41, ptr noundef %42, i32 noundef 1)
  store i32 %43, ptr %11, align 4, !tbaa !10
  br label %44

44:                                               ; preds = %40, %33
  %45 = load ptr, ptr %10, align 8, !tbaa !8
  %46 = load ptr, ptr %7, align 8, !tbaa !8
  call void @do_free_upto(ptr noundef %45, ptr noundef %46)
  %47 = load i32, ptr %11, align 4, !tbaa !10
  store i32 %47, ptr %5, align 4
  store i32 1, ptr %12, align 4
  br label %48

48:                                               ; preds = %44, %32, %25, %17
  call void @llvm.lifetime.end.p0(i64 4, ptr %11) #4
  call void @llvm.lifetime.end.p0(i64 8, ptr %10) #4
  %49 = load i32, ptr %5, align 4
  ret i32 %49
}