; Function Attrs: nounwind uwtable
define i32 @CMS_digest_verify(ptr noundef %0, ptr noundef %1, ptr noundef %2, i32 noundef %3) local_unnamed_addr #0 {
  %5 = tail call ptr @CMS_get0_type(ptr noundef %0) #4
  %6 = tail call i32 @OBJ_obj2nid(ptr noundef %5) #4
  %.not = icmp eq i32 %6, 25
  br i1 %.not, label %8, label %7

7:                                                ; preds = %4
  tail call void @ERR_new() #4
  tail call void @ERR_set_debug(ptr noundef nonnull @.str, i32 noundef 149, ptr noundef nonnull @__func__.CMS_digest_verify) #4
  tail call void (i32, i32, ptr, ...) @ERR_set_error(i32 noundef 46, i32 noundef 144, ptr noundef null) #4
  br label %do_free_upto.exit

8:                                                ; preds = %4
  %9 = icmp eq ptr %1, null
  br i1 %9, label %10, label %check_content.exit

10:                                               ; preds = %8
  %11 = tail call ptr @CMS_get0_content(ptr noundef %0) #4
  %12 = icmp eq ptr %11, null
  br i1 %12, label %check_content.exit.thread, label %13

13:                                               ; preds = %10
  %14 = load ptr, ptr %11, align 8, !tbaa !5
  %15 = icmp eq ptr %14, null
  br i1 %15, label %check_content.exit.thread, label %check_content.exit

check_content.exit.thread:                        ; preds = %10, %13
  tail call void @ERR_new() #4
  tail call void @ERR_set_debug(ptr noundef nonnull @.str, i32 noundef 84, ptr noundef nonnull @__func__.check_content) #4
  tail call void (i32, i32, ptr, ...) @ERR_set_error(i32 noundef 46, i32 noundef 127, ptr noundef null) #4
  br label %do_free_upto.exit

check_content.exit:                               ; preds = %13, %8
  %16 = tail call ptr @CMS_dataInit(ptr noundef %0, ptr noundef %1) #4
  %17 = icmp eq ptr %16, null
  br i1 %17, label %do_free_upto.exit, label %18

18:                                               ; preds = %check_content.exit
  %19 = tail call fastcc i32 @cms_copy_content(ptr noundef %2, ptr noundef %16, i32 noundef %3)
  %.not19 = icmp eq i32 %19, 0
  br i1 %.not19, label %22, label %20

20:                                               ; preds = %18
  %21 = tail call i32 @ossl_cms_DigestedData_do_final(ptr noundef %0, ptr noundef nonnull %16, i32 noundef 1) #4
  br label %22

22:                                               ; preds = %20, %18
  %.0 = phi i32 [ %21, %20 ], [ 0, %18 ]
  br i1 %9, label %28, label %.preheader.i

.preheader.i:                                     ; preds = %22, %.preheader.i
  %.0.i20 = phi ptr [ %23, %.preheader.i ], [ %16, %22 ]
  %23 = tail call ptr @BIO_pop(ptr noundef nonnull %.0.i20) #4
  %24 = tail call i32 @BIO_free(ptr noundef nonnull %.0.i20) #4
  %25 = icmp ne ptr %23, null
  %26 = icmp ne ptr %23, %1
  %27 = and i1 %25, %26
  br i1 %27, label %.preheader.i, label %do_free_upto.exit, !llvm.loop !3

28:                                               ; preds = %22
  tail call void @BIO_free_all(ptr noundef nonnull %16) #4
  br label %do_free_upto.exit

do_free_upto.exit:                                ; preds = %.preheader.i, %28, %check_content.exit.thread, %check_content.exit, %7
  %.015 = phi i32 [ 0, %7 ], [ 0, %check_content.exit ], [ 0, %check_content.exit.thread ], [ %.0, %28 ], [ %.0, %.preheader.i ]
  ret i32 %.015
}